target datalayout = "e-m:e-p270:32:32-p271:32:32-p272:64:64-i64:64-i128:128-f80:128-n8:16:32:64-S128"
target triple = "x86_64-pc-linux-gnu"

%struct.wtap_dumper = type { ptr, i32, i32, i32, i32, i8, i64, ptr, ptr, ptr, ptr, ptr, ptr, ptr, ptr, ptr, ptr, ptr, ptr, ptr, i32, i32, i32 }
%struct.ngsniffer_dump_t = type { i8, i64 }

@ngsniffer_magic = internal constant [17 x i8] c"TRSNIFF data    \1A", align 16
@__const.ngsniffer_dump_open.buf = private unnamed_addr constant [6 x i8] c"\01\00\12\00\00\00", align 1

; Function Attrs: null_pointer_is_valid sspstrong uwtable
define internal zeroext i1 @ngsniffer_dump_open(ptr noundef %0, ptr noundef %1, ptr noundef %2) #0 {
  %4 = alloca i1, align 1
  %5 = alloca ptr, align 8
  %6 = alloca ptr, align 8
  %7 = alloca ptr, align 8
  %8 = alloca ptr, align 8
  %9 = alloca [6 x i8], align 1
  %10 = alloca i64, align 8
  %11 = alloca i64, align 8
  %12 = alloca ptr, align 8
  %13 = alloca ptr, align 8
  %14 = alloca i32, align 4
  store ptr %0, ptr %5, align 8
  store ptr %1, ptr %6, align 8
  store ptr %2, ptr %7, align 8
  call void @llvm.lifetime.start.p0(i64 8, ptr %8) #14
  call void @llvm.lifetime.start.p0(i64 6, ptr %9) #14
  call void @llvm.memcpy.p0.p0.i64(ptr align 1 %9, ptr align 1 @__const.ngsniffer_dump_open.buf, i64 6, i1 false)
  %15 = load ptr, ptr %5, align 8
  %16 = getelementptr inbounds nuw %struct.wtap_dumper, ptr %15, i32 0, i32 10
  store ptr @ngsniffer_dump, ptr %16, align 8
  %17 = load ptr, ptr %5, align 8
  %18 = getelementptr inbounds nuw %struct.wtap_dumper, ptr %17, i32 0, i32 11
  store ptr @ngsniffer_dump_finish, ptr %18, align 8
  call void @llvm.lifetime.start.p0(i64 8, ptr %10) #14
  store i64 1, ptr %10, align 8
  call void @llvm.lifetime.start.p0(i64 8, ptr %11) #14
  store i64 16, ptr %11, align 8
  call void @llvm.lifetime.start.p0(i64 8, ptr %12) #14
  %19 = load i64, ptr %11, align 8
  %20 = icmp eq i64 %19, 1
  br i1 %20, label %21, label %24

21:                                               ; preds = %3
  %22 = load i64, ptr %10, align 8
  %23 = call noalias ptr @g_malloc(i64 noundef %22) #16
  store ptr %23, ptr %12, align 8
  br label %45

24:                                               ; preds = %3
  %25 = load i64, ptr %10, align 8
  %26 = call i1 @llvm.is.constant.i64(i64 %25)
  br i1 %26, label %27, label %40

27:                                               ; preds = %24
  %28 = load i64, ptr %11, align 8
  %29 = icmp eq i64 %28, 0
  br i1 %29, label %35, label %30

30:                                               ; preds = %27
  %31 = load i64, ptr %10, align 8
  %32 = load i64, ptr %11, align 8
  %33 = udiv i64 -1, %32
  %34 = icmp ule i64 %31, %33
  br i1 %34, label %35, label %40

35:                                               ; preds = %30, %27
  %36 = load i64, ptr %10, align 8
  %37 = load i64, ptr %11, align 8
  %38 = mul i64 %36, %37
  %39 = call noalias ptr @g_malloc(i64 noundef %38) #16
  store ptr %39, ptr %12, align 8
  br label %44

40:                                               ; preds = %30, %24
  %41 = load i64, ptr %10, align 8
  %42 = load i64, ptr %11, align 8
  %43 = call noalias ptr @g_malloc_n(i64 noundef %41, i64 noundef %42) #17
  store ptr %43, ptr %12, align 8
  br label %44

44:                                               ; preds = %40, %35
  br label %45

45:                                               ; preds = %44, %21
  %46 = load ptr, ptr %12, align 8
  store ptr %46, ptr %13, align 8
  call void @llvm.lifetime.end.p0(i64 8, ptr %12) #14
  call void @llvm.lifetime.end.p0(i64 8, ptr %11) #14
  call void @llvm.lifetime.end.p0(i64 8, ptr %10) #14
  %47 = load ptr, ptr %13, align 8
  store ptr %47, ptr %8, align 8
  %48 = load ptr, ptr %8, align 8
  %49 = load ptr, ptr %5, align 8
  %50 = getelementptr inbounds nuw %struct.wtap_dumper, ptr %49, i32 0, i32 7
  store ptr %48, ptr %50, align 8
  %51 = load ptr, ptr %8, align 8
  %52 = getelementptr inbounds nuw %struct.ngsniffer_dump_t, ptr %51, i32 0, i32 0
  store i8 1, ptr %52, align 8
  %53 = load ptr, ptr %8, align 8
  %54 = getelementptr inbounds nuw %struct.ngsniffer_dump_t, ptr %53, i32 0, i32 1
  store i64 0, ptr %54, align 8
  %55 = load ptr, ptr %5, align 8
  %56 = load ptr, ptr %6, align 8
  %57 = call zeroext i1 @wtap_dump_file_write(ptr noundef %55, ptr noundef @ngsniffer_magic, i64 noundef 17, ptr noundef %56)
  br i1 %57, label %59, label %58

58:                                               ; preds = %45
  store i1 false, ptr %4, align 1
  store i32 1, ptr %14, align 4
  br label %66

59:                                               ; preds = %45
  %60 = load ptr, ptr %5, align 8
  %61 = getelementptr inbounds [6 x i8], ptr %9, i64 0, i64 0
  %62 = load ptr, ptr %6, align 8
  %63 = call zeroext i1 @wtap_dump_file_write(ptr noundef %60, ptr noundef %61, i64 noundef 6, ptr noundef %62)
  br i1 %63, label %65, label %64

64:                                               ; preds = %59
  store i1 false, ptr %4, align 1
  store i32 1, ptr %14, align 4
  br label %66

65:                                               ; preds = %59
  store i1 true, ptr %4, align 1
  store i32 1, ptr %14, align 4
  br label %66

66:                                               ; preds = %65, %64, %58
  call void @llvm.lifetime.end.p0(i64 6, ptr %9) #14
  call void @llvm.lifetime.end.p0(i64 8, ptr %8) #14
  %67 = load i1, ptr %4, align 1
  ret i1 %67
}