; Function Attrs: null_pointer_is_valid sspstrong uwtable
define internal zeroext i1 @ngsniffer_dump_open(ptr noundef initializes((40, 48), (64, 80)) %0, ptr noundef %1, ptr readnone captures(none) %2) #0 {
  %4 = alloca [6 x i8], align 1
  call void @llvm.lifetime.start.p0(i64 6, ptr nonnull %4) #12
  call void @llvm.memcpy.p0.p0.i64(ptr noundef nonnull align 1 dereferenceable(6) %4, ptr noundef nonnull align 1 dereferenceable(6) @__const.ngsniffer_dump_open.buf, i64 6, i1 false)
  %5 = getelementptr inbounds nuw i8, ptr %0, i64 64
  store ptr @ngsniffer_dump, ptr %5, align 8
  %6 = getelementptr inbounds nuw i8, ptr %0, i64 72
  store ptr @ngsniffer_dump_finish, ptr %6, align 8
  %7 = tail call noalias dereferenceable_or_null(16) ptr @g_malloc(i64 noundef 16) #13
  %8 = getelementptr inbounds nuw i8, ptr %0, i64 40
  store ptr %7, ptr %8, align 8
  store i8 1, ptr %7, align 8
  %9 = getelementptr inbounds nuw i8, ptr %7, i64 8
  store i64 0, ptr %9, align 8
  %10 = tail call zeroext i1 @wtap_dump_file_write(ptr noundef %0, ptr noundef nonnull @ngsniffer_magic, i64 noundef 17, ptr noundef %1)
  br i1 %10, label %11, label %13

11:                                               ; preds = %3
  %12 = call zeroext i1 @wtap_dump_file_write(ptr noundef %0, ptr noundef nonnull %4, i64 noundef 6, ptr noundef %1)
  br label %13

13:                                               ; preds = %11, %3
  %.0 = phi i1 [ false, %3 ], [ %12, %11 ]
  call void @llvm.lifetime.end.p0(i64 6, ptr nonnull %4) #12
  ret i1 %.0
}